target datalayout = "e-m:e-p270:32:32-p271:32:32-p272:64:64-i64:64-f80:128-n8:16:32:64-S128"
target triple = "x86_64-pc-linux-gnu"

@.str = private unnamed_addr constant [3 x i8] c"%c\00", align 1
@.str.1 = private unnamed_addr constant [2 x i8] c"\0A\00", align 1

; Function Attrs: noinline nounwind uwtable
define dso_local i32 @main() #0 {
  %1 = alloca i32, align 4
  %2 = alloca [200 x i8], align 16
  %3 = alloca [50 x [50 x i8]], align 16
  %4 = alloca i32, align 4
  %5 = alloca i32, align 4
  %6 = alloca i32, align 4
  %7 = alloca [100 x i32], align 16
  %8 = alloca i32, align 4
  %9 = alloca i32, align 4
  %10 = alloca i32, align 4
  %11 = alloca i32, align 4
  %12 = alloca i32, align 4
  %13 = alloca i32, align 4
  store i32 0, i32* %1, align 4
  store i32 0, i32* %5, align 4
  store i32 0, i32* %6, align 4
  %14 = bitcast [100 x i32]* %7 to i8*
  call void @llvm.memset.p0i8.i64(i8* align 16 %14, i8 0, i64 400, i1 false)
  store i32 0, i32* %11, align 4
  store i32 1, i32* %13, align 4
  %15 = getelementptr inbounds [200 x i8], [200 x i8]* %2, i64 0, i64 0
  %16 = call i32 (i8*, ...) bitcast (i32 (...)* @gets to i32 (i8*, ...)*)(i8* %15)
  store i32 0, i32* %4, align 4
  br label %17

17:                                               ; preds = %76, %0
  %18 = load i32, i32* %4, align 4
  %19 = sext i32 %18 to i64
  %20 = getelementptr inbounds [200 x i8], [200 x i8]* %2, i64 0, i64 %19
  %21 = load i8, i8* %20, align 1
  %22 = load i32, i32* %5, align 4
  %23 = sext i32 %22 to i64
  %24 = getelementptr inbounds [50 x [50 x i8]], [50 x [50 x i8]]* %3, i64 0, i64 %23
  %25 = load i32, i32* %11, align 4
  %26 = sext i32 %25 to i64
  %27 = getelementptr inbounds [50 x i8], [50 x i8]* %24, i64 0, i64 %26
  store i8 %21, i8* %27, align 1
  %28 = load i32, i32* %5, align 4
  %29 = sext i32 %28 to i64
  %30 = getelementptr inbounds [100 x i32], [100 x i32]* %7, i64 0, i64 %29
  %31 = load i32, i32* %30, align 4
  %32 = add nsw i32 %31, 1
  store i32 %32, i32* %30, align 4
  %33 = load i32, i32* %4, align 4
  %34 = add nsw i32 %33, 1
  %35 = sext i32 %34 to i64
  %36 = getelementptr inbounds [200 x i8], [200 x i8]* %2, i64 0, i64 %35
  %37 = load i8, i8* %36, align 1
  %38 = sext i8 %37 to i32
  %39 = icmp eq i32 %38, 32
  br i1 %39, label %40, label %53

40:                                               ; preds = %17
  %41 = load i32, i32* %11, align 4
  %42 = add nsw i32 %41, 1
  store i32 %42, i32* %11, align 4
  %43 = load i32, i32* %5, align 4
  %44 = sext i32 %43 to i64
  %45 = getelementptr inbounds [50 x [50 x i8]], [50 x [50 x i8]]* %3, i64 0, i64 %44
  %46 = load i32, i32* %11, align 4
  %47 = sext i32 %46 to i64
  %48 = getelementptr inbounds [50 x i8], [50 x i8]* %45, i64 0, i64 %47
  store i8 0, i8* %48, align 1
  %49 = load i32, i32* %5, align 4
  %50 = add nsw i32 %49, 1
  store i32 %50, i32* %5, align 4
  store i32 0, i32* %11, align 4
  %51 = load i32, i32* %4, align 4
  %52 = add nsw i32 %51, 1
  store i32 %52, i32* %4, align 4
  br label %53

53:                                               ; preds = %40, %17
  %54 = load i32, i32* %4, align 4
  %55 = add nsw i32 %54, 1
  %56 = sext i32 %55 to i64
  %57 = getelementptr inbounds [200 x i8], [200 x i8]* %2, i64 0, i64 %56
  %58 = load i8, i8* %57, align 1
  %59 = sext i8 %58 to i32
  %60 = icmp eq i32 %59, 0
  br i1 %60, label %61, label %72

61:                                               ; preds = %53
  %62 = load i32, i32* %11, align 4
  %63 = add nsw i32 %62, 1
  store i32 %63, i32* %11, align 4
  %64 = load i32, i32* %5, align 4
  %65 = sext i32 %64 to i64
  %66 = getelementptr inbounds [50 x [50 x i8]], [50 x [50 x i8]]* %3, i64 0, i64 %65
  %67 = load i32, i32* %11, align 4
  %68 = sext i32 %67 to i64
  %69 = getelementptr inbounds [50 x i8], [50 x i8]* %66, i64 0, i64 %68
  store i8 0, i8* %69, align 1
  %70 = load i32, i32* %5, align 4
  %71 = add nsw i32 %70, 1
  store i32 %71, i32* %5, align 4
  store i32 0, i32* %11, align 4
  br label %79

72:                                               ; preds = %53
  %73 = load i32, i32* %11, align 4
  %74 = add nsw i32 %73, 1
  store i32 %74, i32* %11, align 4
  br label %75

75:                                               ; preds = %72
  br label %76

76:                                               ; preds = %75
  %77 = load i32, i32* %4, align 4
  %78 = add nsw i32 %77, 1
  store i32 %78, i32* %4, align 4
  br label %17

79:                                               ; preds = %61
  %80 = getelementptr inbounds [100 x i32], [100 x i32]* %7, i64 0, i64 0
  %81 = load i32, i32* %80, align 16
  store i32 %81, i32* %8, align 4
  %82 = getelementptr inbounds [100 x i32], [100 x i32]* %7, i64 0, i64 0
  %83 = load i32, i32* %82, align 16
  store i32 %83, i32* %9, align 4
  store i32 0, i32* %4, align 4
  br label %84

84:                                               ; preds = %113, %79
  %85 = load i32, i32* %4, align 4
  %86 = load i32, i32* %5, align 4
  %87 = icmp slt i32 %85, %86
  br i1 %87, label %88, label %116

88:                                               ; preds = %84
  %89 = load i32, i32* %4, align 4
  %90 = sext i32 %89 to i64
  %91 = getelementptr inbounds [100 x i32], [100 x i32]* %7, i64 0, i64 %90
  %92 = load i32, i32* %91, align 4
  %93 = load i32, i32* %8, align 4
  %94 = icmp sgt i32 %92, %93
  br i1 %94, label %95, label %100

95:                                               ; preds = %88
  %96 = load i32, i32* %4, align 4
  %97 = sext i32 %96 to i64
  %98 = getelementptr inbounds [100 x i32], [100 x i32]* %7, i64 0, i64 %97
  %99 = load i32, i32* %98, align 4
  store i32 %99, i32* %8, align 4
  br label %100

100:                                              ; preds = %95, %88
  %101 = load i32, i32* %4, align 4
  %102 = sext i32 %101 to i64
  %103 = getelementptr inbounds [100 x i32], [100 x i32]* %7, i64 0, i64 %102
  %104 = load i32, i32* %103, align 4
  %105 = load i32, i32* %9, align 4
  %106 = icmp slt i32 %104, %105
  br i1 %106, label %107, label %112

107:                                              ; preds = %100
  %108 = load i32, i32* %4, align 4
  %109 = sext i32 %108 to i64
  %110 = getelementptr inbounds [100 x i32], [100 x i32]* %7, i64 0, i64 %109
  %111 = load i32, i32* %110, align 4
  store i32 %111, i32* %9, align 4
  br label %112

112:                                              ; preds = %107, %100
  br label %113

113:                                              ; preds = %112
  %114 = load i32, i32* %4, align 4
  %115 = add nsw i32 %114, 1
  store i32 %115, i32* %4, align 4
  br label %84

116:                                              ; preds = %84
  store i32 0, i32* %4, align 4
  br label %117

117:                                              ; preds = %164, %116
  %118 = load i32, i32* %4, align 4
  %119 = load i32, i32* %5, align 4
  %120 = icmp slt i32 %118, %119
  br i1 %120, label %121, label %167

121:                                              ; preds = %117
  %122 = load i32, i32* %4, align 4
  %123 = sext i32 %122 to i64
  %124 = getelementptr inbounds [100 x i32], [100 x i32]* %7, i64 0, i64 %123
  %125 = load i32, i32* %124, align 4
  %126 = load i32, i32* %8, align 4
  %127 = icmp eq i32 %125, %126
  br i1 %127, label %128, label %159

128:                                              ; preds = %121
  store i32 2, i32* %13, align 4
  %129 = load i32, i32* %4, align 4
  %130 = icmp eq i32 %129, 0
  br i1 %130, label %131, label %132

131:                                              ; preds = %128
  store i32 0, i32* %12, align 4
  br label %133

132:                                              ; preds = %128
  store i32 1, i32* %12, align 4
  br label %133

133:                                              ; preds = %132, %131
  %134 = load i32, i32* %12, align 4
  store i32 %134, i32* %6, align 4
  br label %135

135:                                              ; preds = %155, %133
  %136 = load i32, i32* %4, align 4
  %137 = sext i32 %136 to i64
  %138 = getelementptr inbounds [50 x [50 x i8]], [50 x [50 x i8]]* %3, i64 0, i64 %137
  %139 = load i32, i32* %6, align 4
  %140 = sext i32 %139 to i64
  %141 = getelementptr inbounds [50 x i8], [50 x i8]* %138, i64 0, i64 %140
  %142 = load i8, i8* %141, align 1
  %143 = sext i8 %142 to i32
  %144 = icmp ne i32 %143, 0
  br i1 %144, label %145, label %158

145:                                              ; preds = %135
  %146 = load i32, i32* %4, align 4
  %147 = sext i32 %146 to i64
  %148 = getelementptr inbounds [50 x [50 x i8]], [50 x [50 x i8]]* %3, i64 0, i64 %147
  %149 = load i32, i32* %6, align 4
  %150 = sext i32 %149 to i64
  %151 = getelementptr inbounds [50 x i8], [50 x i8]* %148, i64 0, i64 %150
  %152 = load i8, i8* %151, align 1
  %153 = sext i8 %152 to i32
  %154 = call i32 (i8*, ...) @printf(i8* getelementptr inbounds ([3 x i8], [3 x i8]* @.str, i64 0, i64 0), i32 %153)
  br label %155

155:                                              ; preds = %145
  %156 = load i32, i32* %6, align 4
  %157 = add nsw i32 %156, 1
  store i32 %157, i32* %6, align 4
  br label %135

158:                                              ; preds = %135
  br label %159

159:                                              ; preds = %158, %121
  %160 = load i32, i32* %13, align 4
  %161 = icmp eq i32 %160, 2
  br i1 %161, label %162, label %163

162:                                              ; preds = %159
  br label %167

163:                                              ; preds = %159
  br label %164

164:                                              ; preds = %163
  %165 = load i32, i32* %4, align 4
  %166 = add nsw i32 %165, 1
  store i32 %166, i32* %4, align 4
  br label %117

167:                                              ; preds = %162, %117
  %168 = call i32 (i8*, ...) @printf(i8* getelementptr inbounds ([2 x i8], [2 x i8]* @.str.1, i64 0, i64 0))
  store i32 0, i32* %4, align 4
  br label %169

169:                                              ; preds = %216, %167
  %170 = load i32, i32* %4, align 4
  %171 = load i32, i32* %5, align 4
  %172 = icmp slt i32 %170, %171
  br i1 %172, label %173, label %219

173:                                              ; preds = %169
  %174 = load i32, i32* %4, align 4
  %175 = sext i32 %174 to i64
  %176 = getelementptr inbounds [100 x i32], [100 x i32]* %7, i64 0, i64 %175
  %177 = load i32, i32* %176, align 4
  %178 = load i32, i32* %9, align 4
  %179 = icmp eq i32 %177, %178
  br i1 %179, label %180, label %211

180:                                              ; preds = %173
  store i32 0, i32* %13, align 4
  %181 = load i32, i32* %4, align 4
  %182 = icmp eq i32 %181, 0
  br i1 %182, label %183, label %184

183:                                              ; preds = %180
  store i32 0, i32* %12, align 4
  br label %185

184:                                              ; preds = %180
  store i32 1, i32* %12, align 4
  br label %185

185:                                              ; preds = %184, %183
  %186 = load i32, i32* %12, align 4
  store i32 %186, i32* %6, align 4
  br label %187

187:                                              ; preds = %207, %185
  %188 = load i32, i32* %4, align 4
  %189 = sext i32 %188 to i64
  %190 = getelementptr inbounds [50 x [50 x i8]], [50 x [50 x i8]]* %3, i64 0, i64 %189
  %191 = load i32, i32* %6, align 4
  %192 = sext i32 %191 to i64
  %193 = getelementptr inbounds [50 x i8], [50 x i8]* %190, i64 0, i64 %192
  %194 = load i8, i8* %193, align 1
  %195 = sext i8 %194 to i32
  %196 = icmp ne i32 %195, 0
  br i1 %196, label %197, label %210

197:                                              ; preds = %187
  %198 = load i32, i32* %4, align 4
  %199 = sext i32 %198 to i64
  %200 = getelementptr inbounds [50 x [50 x i8]], [50 x [50 x i8]]* %3, i64 0, i64 %199
  %201 = load i32, i32* %6, align 4
  %202 = sext i32 %201 to i64
  %203 = getelementptr inbounds [50 x i8], [50 x i8]* %200, i64 0, i64 %202
  %204 = load i8, i8* %203, align 1
  %205 = sext i8 %204 to i32
  %206 = call i32 (i8*, ...) @printf(i8* getelementptr inbounds ([3 x i8], [3 x i8]* @.str, i64 0, i64 0), i32 %205)
  br label %207

207:                                              ; preds = %197
  %208 = load i32, i32* %6, align 4
  %209 = add nsw i32 %208, 1
  store i32 %209, i32* %6, align 4
  br label %187

210:                                              ; preds = %187
  br label %211

211:                                              ; preds = %210, %173
  %212 = load i32, i32* %13, align 4
  %213 = icmp eq i32 %212, 0
  br i1 %213, label %214, label %215

214:                                              ; preds = %211
  br label %219

215:                                              ; preds = %211
  br label %216

216:                                              ; preds = %215
  %217 = load i32, i32* %4, align 4
  %218 = add nsw i32 %217, 1
  store i32 %218, i32* %4, align 4
  br label %169

219:                                              ; preds = %214, %169
  %220 = load i32, i32* %1, align 4
  ret i32 %220
}